target datalayout = "e-m:e-p270:32:32-p271:32:32-p272:64:64-i64:64-i128:128-f80:128-n8:16:32:64-S128"
target triple = "x86_64-pc-linux-gnu"

%struct.SnapshotData = type { i32, i32, i32, ptr, i32, ptr, i32, i8, i8, i8, i32, i32, ptr, i32, i32, %struct.pairingheap_node, i64 }
%struct.pairingheap_node = type { ptr, ptr, ptr }
%struct.varattrib_1b = type { i8, [0 x i8] }
%struct.varattrib_1b_e = type { i8, i8, [0 x i8] }
%struct.varatt_external = type { i32, i32, i32, i32 }
%struct.HeapTupleData = type { i32, %struct.ItemPointerData, i32, ptr }
%struct.ItemPointerData = type { %struct.BlockIdData, i16 }
%struct.BlockIdData = type { i16, i16 }
%struct.ScanKeyData = type { i32, i16, i16, i32, i32, %struct.FmgrInfo, i64 }
%struct.FmgrInfo = type { ptr, i32, i16, i8, i8, i8, ptr, ptr, ptr }

@.str.1 = private unnamed_addr constant [18 x i8] c"toast_internals.c\00", align 1
@.str.3 = private unnamed_addr constant [51 x i8] c"cannot fetch toast data without an active snapshot\00", align 1
@__func__.get_toast_snapshot = private unnamed_addr constant [19 x i8] c"get_toast_snapshot\00", align 1
@SnapshotToastData = external global %struct.SnapshotData, align 8

; Function Attrs: nounwind uwtable
define dso_local void @toast_close_indexes(ptr noundef %0, i32 noundef %1, i32 noundef %2) #0 {
  %4 = alloca ptr, align 8
  %5 = alloca i32, align 4
  %6 = alloca i32, align 4
  %7 = alloca i32, align 4
  store ptr %0, ptr %4, align 8
  store i32 %1, ptr %5, align 4
  store i32 %2, ptr %6, align 4
  call void @llvm.lifetime.start.p0(i64 4, ptr %7) #8
  store i32 0, ptr %7, align 4
  br label %8

8:                                                ; preds = %19, %3
  %9 = load i32, ptr %7, align 4
  %10 = load i32, ptr %5, align 4
  %11 = icmp slt i32 %9, %10
  br i1 %11, label %12, label %22

12:                                               ; preds = %8
  %13 = load ptr, ptr %4, align 8
  %14 = load i32, ptr %7, align 4
  %15 = sext i32 %14 to i64
  %16 = getelementptr inbounds ptr, ptr %13, i64 %15
  %17 = load ptr, ptr %16, align 8
  %18 = load i32, ptr %6, align 4
  call void @index_close(ptr noundef %17, i32 noundef %18)
  br label %19

19:                                               ; preds = %12
  %20 = load i32, ptr %7, align 4
  %21 = add i32 %20, 1
  store i32 %21, ptr %7, align 4
  br label %8, !llvm.loop !12

22:                                               ; preds = %8
  %23 = load ptr, ptr %4, align 8
  call void @pfree(ptr noundef %23)
  call void @llvm.lifetime.end.p0(i64 4, ptr %7) #8
  ret void
}

; Function Attrs: nounwind uwtable
define dso_local ptr @get_toast_snapshot() #0 {
  %1 = call zeroext i1 @HaveRegisteredOrActiveSnapshot()
  br i1 %1, label %12, label %2

2:                                                ; preds = %0
  br label %3

3:                                                ; preds = %2
  br i1 true, label %4, label %6

4:                                                ; preds = %3
  %5 = call zeroext i1 @errstart_cold(i32 noundef 21, ptr noundef null) #9
  br i1 %5, label %8, label %10

6:                                                ; preds = %3
  %7 = call zeroext i1 @errstart(i32 noundef 21, ptr noundef null)
  br i1 %7, label %8, label %10

8:                                                ; preds = %6, %4
  %9 = call i32 (ptr, ...) @errmsg_internal(ptr noundef @.str.3)
  call void @errfinish(ptr noundef @.str.1, i32 noundef 653, ptr noundef @__func__.get_toast_snapshot)
  br label %10

10:                                               ; preds = %8, %6, %4
  unreachable

11:                                               ; No predecessors!
  br label %12

12:                                               ; preds = %11, %0
  ret ptr @SnapshotToastData
}

; Function Attrs: inlinehint nounwind uwtable
define internal i64 @ObjectIdGetDatum(i32 noundef %0) #2 {
  %2 = alloca i32, align 4
  store i32 %0, ptr %2, align 4
  %3 = load i32, ptr %2, align 4
  %4 = zext i32 %3 to i64
  ret i64 %4
}

; Function Attrs: inlinehint nounwind uwtable
define internal ptr @DatumGetPointer(i64 noundef %0) #2 {
  %2 = alloca i64, align 8
  store i64 %0, ptr %2, align 8
  %3 = load i64, ptr %2, align 8
  %4 = inttoptr i64 %3 to ptr
  ret ptr %4
}

; Function Attrs: nounwind uwtable
define dso_local void @toast_delete_datum(ptr noundef %0, i64 noundef %1, i1 noundef zeroext %2) #0 {
  %4 = alloca ptr, align 8
  %5 = alloca i64, align 8
  %6 = alloca i8, align 1
  %7 = alloca ptr, align 8
  %8 = alloca %struct.varatt_external, align 4
  %9 = alloca ptr, align 8
  %10 = alloca ptr, align 8
  %11 = alloca %struct.ScanKeyData, align 8
  %12 = alloca ptr, align 8
  %13 = alloca ptr, align 8
  %14 = alloca i32, align 4
  %15 = alloca i32, align 4
  %16 = alloca i32, align 4
  %17 = alloca ptr, align 8
  store ptr %0, ptr %4, align 8
  store i64 %1, ptr %5, align 8
  %18 = zext i1 %2 to i8
  store i8 %18, ptr %6, align 1
  call void @llvm.lifetime.start.p0(i64 8, ptr %7) #8
  %19 = load i64, ptr %5, align 8
  %20 = call ptr @DatumGetPointer(i64 noundef %19)
  store ptr %20, ptr %7, align 8
  call void @llvm.lifetime.start.p0(i64 16, ptr %8) #8
  call void @llvm.lifetime.start.p0(i64 8, ptr %9) #8
  call void @llvm.lifetime.start.p0(i64 8, ptr %10) #8
  call void @llvm.lifetime.start.p0(i64 72, ptr %11) #8
  call void @llvm.lifetime.start.p0(i64 8, ptr %12) #8
  call void @llvm.lifetime.start.p0(i64 8, ptr %13) #8
  call void @llvm.lifetime.start.p0(i64 4, ptr %14) #8
  call void @llvm.lifetime.start.p0(i64 4, ptr %15) #8
  %21 = load ptr, ptr %7, align 8
  %22 = getelementptr inbounds nuw %struct.varattrib_1b, ptr %21, i32 0, i32 0
  %23 = load i8, ptr %22, align 1
  %24 = zext i8 %23 to i32
  %25 = icmp eq i32 %24, 1
  br i1 %25, label %26, label %32

26:                                               ; preds = %3
  %27 = load ptr, ptr %7, align 8
  %28 = getelementptr inbounds nuw %struct.varattrib_1b_e, ptr %27, i32 0, i32 1
  %29 = load i8, ptr %28, align 1
  %30 = zext i8 %29 to i32
  %31 = icmp eq i32 %30, 18
  br i1 %31, label %33, label %32

32:                                               ; preds = %26, %3
  store i32 1, ptr %16, align 4
  br label %78

33:                                               ; preds = %26
  br label %34

34:                                               ; preds = %33
  call void @llvm.lifetime.start.p0(i64 8, ptr %17) #8
  %35 = load ptr, ptr %7, align 8
  store ptr %35, ptr %17, align 8
  %36 = load ptr, ptr %17, align 8
  %37 = getelementptr inbounds nuw %struct.varattrib_1b_e, ptr %36, i32 0, i32 2
  %38 = getelementptr inbounds [0 x i8], ptr %37, i64 0, i64 0
  call void @llvm.memcpy.p0.p0.i64(ptr align 4 %8, ptr align 1 %38, i64 16, i1 false)
  call void @llvm.lifetime.end.p0(i64 8, ptr %17) #8
  br label %39

39:                                               ; preds = %34
  br label %40

40:                                               ; preds = %39
  %41 = getelementptr inbounds nuw %struct.varatt_external, ptr %8, i32 0, i32 3
  %42 = load i32, ptr %41, align 4
  %43 = call ptr @table_open(i32 noundef %42, i32 noundef 3)
  store ptr %43, ptr %9, align 8
  %44 = load ptr, ptr %9, align 8
  %45 = call i32 @toast_open_indexes(ptr noundef %44, i32 noundef 3, ptr noundef %10, ptr noundef %14)
  store i32 %45, ptr %15, align 4
  %46 = getelementptr inbounds nuw %struct.varatt_external, ptr %8, i32 0, i32 2
  %47 = load i32, ptr %46, align 4
  %48 = call i64 @ObjectIdGetDatum(i32 noundef %47)
  call void @ScanKeyInit(ptr noundef %11, i16 noundef signext 1, i16 noundef zeroext 3, i32 noundef 184, i64 noundef %48)
  %49 = load ptr, ptr %9, align 8
  %50 = load ptr, ptr %10, align 8
  %51 = load i32, ptr %15, align 4
  %52 = sext i32 %51 to i64
  %53 = getelementptr inbounds ptr, ptr %50, i64 %52
  %54 = load ptr, ptr %53, align 8
  %55 = call ptr @get_toast_snapshot()
  %56 = call ptr @systable_beginscan_ordered(ptr noundef %49, ptr noundef %54, ptr noundef %55, i32 noundef 1, ptr noundef %11)
  store ptr %56, ptr %12, align 8
  br label %57

57:                                               ; preds = %72, %40
  %58 = load ptr, ptr %12, align 8
  %59 = call ptr @systable_getnext_ordered(ptr noundef %58, i32 noundef 1)
  store ptr %59, ptr %13, align 8
  %60 = icmp ne ptr %59, null
  br i1 %60, label %61, label %73

61:                                               ; preds = %57
  %62 = load i8, ptr %6, align 1, !range !6, !noundef !7
  %63 = trunc i8 %62 to i1
  br i1 %63, label %64, label %68

64:                                               ; preds = %61
  %65 = load ptr, ptr %9, align 8
  %66 = load ptr, ptr %13, align 8
  %67 = getelementptr inbounds nuw %struct.HeapTupleData, ptr %66, i32 0, i32 1
  call void @heap_abort_speculative(ptr noundef %65, ptr noundef %67)
  br label %72

68:                                               ; preds = %61
  %69 = load ptr, ptr %9, align 8
  %70 = load ptr, ptr %13, align 8
  %71 = getelementptr inbounds nuw %struct.HeapTupleData, ptr %70, i32 0, i32 1
  call void @simple_heap_delete(ptr noundef %69, ptr noundef %71)
  br label %72

72:                                               ; preds = %68, %64
  br label %57, !llvm.loop !13

73:                                               ; preds = %57
  %74 = load ptr, ptr %12, align 8
  call void @systable_endscan_ordered(ptr noundef %74)
  %75 = load ptr, ptr %10, align 8
  %76 = load i32, ptr %14, align 4
  call void @toast_close_indexes(ptr noundef %75, i32 noundef %76, i32 noundef 0)
  %77 = load ptr, ptr %9, align 8
  call void @table_close(ptr noundef %77, i32 noundef 0)
  store i32 0, ptr %16, align 4
  br label %78

78:                                               ; preds = %73, %32
  call void @llvm.lifetime.end.p0(i64 4, ptr %15) #8
  call void @llvm.lifetime.end.p0(i64 4, ptr %14) #8
  call void @llvm.lifetime.end.p0(i64 8, ptr %13) #8
  call void @llvm.lifetime.end.p0(i64 8, ptr %12) #8
  call void @llvm.lifetime.end.p0(i64 72, ptr %11) #8
  call void @llvm.lifetime.end.p0(i64 8, ptr %10) #8
  call void @llvm.lifetime.end.p0(i64 8, ptr %9) #8
  call void @llvm.lifetime.end.p0(i64 16, ptr %8) #8
  call void @llvm.lifetime.end.p0(i64 8, ptr %7) #8
  %79 = load i32, ptr %16, align 4
  switch i32 %79, label %81 [
    i32 0, label %80
    i32 1, label %80
  ]

80:                                               ; preds = %78, %78
  ret void

81:                                               ; preds = %78
  unreachable
}