; Function Attrs: nounwind uwtable
define dso_local void @toast_delete_datum(ptr noundef readnone captures(none) %0, i64 noundef %1, i1 noundef zeroext %2) local_unnamed_addr #0 {
  %4 = alloca ptr, align 8
  %5 = alloca %struct.ScanKeyData, align 8
  %6 = alloca i32, align 4
  %7 = inttoptr i64 %1 to ptr
  call void @llvm.lifetime.start.p0(i64 8, ptr nonnull %4) #7
  call void @llvm.lifetime.start.p0(i64 72, ptr nonnull %5) #7
  call void @llvm.lifetime.start.p0(i64 4, ptr nonnull %6) #7
  %8 = load i8, ptr %7, align 1
  %9 = icmp eq i8 %8, 1
  br i1 %9, label %10, label %38

10:                                               ; preds = %3
  %11 = getelementptr inbounds nuw i8, ptr %7, i64 1
  %12 = load i8, ptr %11, align 1
  %13 = icmp eq i8 %12, 18
  br i1 %13, label %14, label %38

14:                                               ; preds = %10
  %.sroa.3.0..sroa_idx = getelementptr inbounds nuw i8, ptr %7, i64 10
  %.sroa.3.0.copyload = load i32, ptr %.sroa.3.0..sroa_idx, align 1
  %.sroa.4.0..sroa_idx = getelementptr inbounds nuw i8, ptr %7, i64 14
  %.sroa.4.0.copyload = load i32, ptr %.sroa.4.0..sroa_idx, align 1
  %15 = tail call ptr @table_open(i32 noundef %.sroa.4.0.copyload, i32 noundef 3) #7
  %16 = call i32 @toast_open_indexes(ptr noundef %15, i32 noundef 3, ptr noundef nonnull %4, ptr noundef nonnull %6)
  %17 = zext i32 %.sroa.3.0.copyload to i64
  call void @ScanKeyInit(ptr noundef nonnull %5, i16 noundef signext 1, i16 noundef zeroext 3, i32 noundef 184, i64 noundef %17) #7
  %18 = load ptr, ptr %4, align 8
  %19 = sext i32 %16 to i64
  %20 = getelementptr inbounds ptr, ptr %18, i64 %19
  %21 = load ptr, ptr %20, align 8
  %22 = call zeroext i1 @HaveRegisteredOrActiveSnapshot() #7
  br i1 %22, label %get_toast_snapshot.exit, label %23

23:                                               ; preds = %14
  %24 = call zeroext i1 @errstart_cold(i32 noundef 21, ptr noundef null) #8
  call void @llvm.assume(i1 %24)
  %25 = call i32 (ptr, ...) @errmsg_internal(ptr noundef nonnull @.str.3) #7
  call void @errfinish(ptr noundef nonnull @.str.1, i32 noundef 653, ptr noundef nonnull @__func__.get_toast_snapshot) #7
  unreachable

get_toast_snapshot.exit:                          ; preds = %14
  %26 = call ptr @systable_beginscan_ordered(ptr noundef %15, ptr noundef %21, ptr noundef nonnull @SnapshotToastData, i32 noundef 1, ptr noundef nonnull %5) #7
  %27 = call ptr @systable_getnext_ordered(ptr noundef %26, i32 noundef 1) #7
  %.not15 = icmp eq ptr %27, null
  br i1 %.not15, label %._crit_edge, label %.lr.ph

.lr.ph:                                           ; preds = %get_toast_snapshot.exit
  br i1 %2, label %.lr.ph.split.us, label %.lr.ph.split

.lr.ph.split.us:                                  ; preds = %.lr.ph, %.lr.ph.split.us
  %28 = phi ptr [ %30, %.lr.ph.split.us ], [ %27, %.lr.ph ]
  %29 = getelementptr inbounds nuw i8, ptr %28, i64 4
  call void @heap_abort_speculative(ptr noundef %15, ptr noundef nonnull %29) #7
  %30 = call ptr @systable_getnext_ordered(ptr noundef %26, i32 noundef 1) #7
  %.not.us = icmp eq ptr %30, null
  br i1 %.not.us, label %._crit_edge, label %.lr.ph.split.us, !llvm.loop !13

.lr.ph.split:                                     ; preds = %.lr.ph, %.lr.ph.split
  %31 = phi ptr [ %33, %.lr.ph.split ], [ %27, %.lr.ph ]
  %32 = getelementptr inbounds nuw i8, ptr %31, i64 4
  call void @simple_heap_delete(ptr noundef %15, ptr noundef nonnull %32) #7
  %33 = call ptr @systable_getnext_ordered(ptr noundef %26, i32 noundef 1) #7
  %.not = icmp eq ptr %33, null
  br i1 %.not, label %._crit_edge, label %.lr.ph.split, !llvm.loop !13

._crit_edge:                                      ; preds = %.lr.ph.split, %.lr.ph.split.us, %get_toast_snapshot.exit
  call void @systable_endscan_ordered(ptr noundef %26) #7
  %34 = load i32, ptr %6, align 4
  %35 = icmp sgt i32 %34, 0
  br i1 %35, label %.lr.ph.preheader.i, label %toast_close_indexes.exit

.lr.ph.preheader.i:                               ; preds = %._crit_edge
  %wide.trip.count.i = zext nneg i32 %34 to i64
  br label %.lr.ph.i

.lr.ph.i:                                         ; preds = %.lr.ph.i, %.lr.ph.preheader.i
  %indvars.iv.i = phi i64 [ 0, %.lr.ph.preheader.i ], [ %indvars.iv.next.i, %.lr.ph.i ]
  %36 = getelementptr inbounds nuw ptr, ptr %18, i64 %indvars.iv.i
  %37 = load ptr, ptr %36, align 8
  call void @index_close(ptr noundef %37, i32 noundef 0) #7
  %indvars.iv.next.i = add nuw nsw i64 %indvars.iv.i, 1
  %exitcond.not.i = icmp eq i64 %indvars.iv.next.i, %wide.trip.count.i
  br i1 %exitcond.not.i, label %toast_close_indexes.exit, label %.lr.ph.i, !llvm.loop !11

toast_close_indexes.exit:                         ; preds = %.lr.ph.i, %._crit_edge
  call void @pfree(ptr noundef %18) #7
  call void @table_close(ptr noundef %15, i32 noundef 0) #7
  br label %38

38:                                               ; preds = %3, %10, %toast_close_indexes.exit
  call void @llvm.lifetime.end.p0(i64 4, ptr nonnull %6) #7
  call void @llvm.lifetime.end.p0(i64 72, ptr nonnull %5) #7
  call void @llvm.lifetime.end.p0(i64 8, ptr nonnull %4) #7
  ret void
}